; Function Attrs: mustprogress nofree norecurse nosync nounwind sspstrong willreturn memory(write, inaccessiblemem: none) uwtable
define dso_local noundef i64 @rb_obj_hide(i64 noundef returned %0) local_unnamed_addr #1 {
  %2 = icmp eq i64 %0, 0
  %3 = and i64 %0, 7
  %4 = icmp ne i64 %3, 0
  %5 = or i1 %2, %4
  br i1 %5, label %9, label %6

6:                                                ; preds = %1
  %7 = inttoptr i64 %0 to ptr
  %8 = getelementptr inbounds nuw i8, ptr %7, i64 8
  store i64 0, ptr %8, align 8, !tbaa !7
  br label %9

9:                                                ; preds = %6, %1
  ret i64 %0
}